; Function Attrs: nounwind uwtable
define i64 @HUF_decompress1X1_DCtx_wksp(ptr noundef captures(none) %0, ptr noundef captures(address) %1, i64 noundef %2, ptr noundef %3, i64 noundef %4, ptr noundef %5, i64 noundef %6, i32 noundef %7) local_unnamed_addr #0 {
  %9 = tail call i64 @HUF_readDTableX1_wksp(ptr noundef %0, ptr noundef %3, i64 noundef %4, ptr noundef %5, i64 noundef %6, i32 noundef %7)
  %10 = icmp ult i64 %9, -119
  br i1 %10, label %11, label %16

11:                                               ; preds = %8
  %.not23 = icmp ult i64 %9, %4
  br i1 %.not23, label %12, label %16

12:                                               ; preds = %11
  %13 = getelementptr inbounds nuw i8, ptr %3, i64 %9
  %14 = sub nuw i64 %4, %9
  %15 = tail call fastcc i64 @HUF_decompress1X1_usingDTable_internal(ptr noundef %1, i64 noundef %2, ptr noundef %13, i64 noundef %14, ptr noundef %0, i32 noundef %7)
  br label %16

16:                                               ; preds = %11, %8, %12
  %.0 = phi i64 [ %15, %12 ], [ %9, %8 ], [ -72, %11 ]
  ret i64 %.0
}